; Function Attrs: nounwind uwtable
define internal fastcc range(i32 -2147483648, 2) i32 @r_Step_5b(ptr noundef initializes((24, 28)) %0) unnamed_addr #0 {
  %2 = getelementptr inbounds nuw i8, ptr %0, i64 8
  %3 = load i32, ptr %2, align 8
  %4 = getelementptr inbounds nuw i8, ptr %0, i64 24
  store i32 %3, ptr %4, align 8
  %5 = getelementptr inbounds nuw i8, ptr %0, i64 16
  %6 = load i32, ptr %5, align 8
  %.not = icmp sgt i32 %3, %6
  br i1 %.not, label %7, label %24

7:                                                ; preds = %1
  %8 = load ptr, ptr %0, align 8
  %9 = add nsw i32 %3, -1
  %10 = sext i32 %9 to i64
  %11 = getelementptr inbounds i8, ptr %8, i64 %10
  %12 = load i8, ptr %11, align 1
  %.not27 = icmp eq i8 %12, 108
  br i1 %.not27, label %13, label %24

13:                                               ; preds = %7
  store i32 %9, ptr %2, align 8
  %14 = getelementptr inbounds nuw i8, ptr %0, i64 20
  store i32 %9, ptr %14, align 4
  %15 = getelementptr i8, ptr %0, i64 40
  %.val33 = load ptr, ptr %15, align 8
  %.val33.val = load i32, ptr %.val33, align 4
  %.not.i = icmp slt i32 %.val33.val, %3
  %.not29 = icmp sgt i32 %9, %6
  %or.cond = and i1 %.not.i, %.not29
  br i1 %or.cond, label %16, label %24

16:                                               ; preds = %13
  %17 = add nsw i32 %3, -2
  %18 = sext i32 %17 to i64
  %19 = getelementptr inbounds i8, ptr %8, i64 %18
  %20 = load i8, ptr %19, align 1
  %.not30 = icmp eq i8 %20, 108
  br i1 %.not30, label %21, label %24

21:                                               ; preds = %16
  store i32 %17, ptr %2, align 8
  %22 = tail call i32 @slice_del(ptr noundef nonnull %0) #3
  %23 = icmp sgt i32 %22, -1
  %spec.select = select i1 %23, i32 1, i32 %22
  br label %24

24:                                               ; preds = %21, %13, %16, %1, %7
  %.0 = phi i32 [ 0, %13 ], [ 0, %7 ], [ 0, %1 ], [ 0, %16 ], [ %spec.select, %21 ]
  ret i32 %.0
}